; ModuleID = '/home/cs22mtech11009/Assignment1/palindrome.cpp'
source_filename = "/home/cs22mtech11009/Assignment1/palindrome.cpp"
target datalayout = "e-m:e-p270:32:32-p271:32:32-p272:64:64-i64:64-f80:128-n8:16:32:64-S128"
target triple = "x86_64-unknown-linux-gnu"

%"class.std::ios_base::Init" = type { i8 }
%"class.std::basic_istream" = type { i32 (...)**, i64, %"class.std::basic_ios" }
%"class.std::basic_ios" = type { %"class.std::ios_base", %"class.std::basic_ostream"*, i8, i8, %"class.std::basic_streambuf"*, %"class.std::ctype"*, %"class.std::num_put"*, %"class.std::num_get"* }
%"class.std::ios_base" = type { i32 (...)**, i64, i64, i32, i32, i32, %"struct.std::ios_base::_Callback_list"*, %"struct.std::ios_base::_Words", [8 x %"struct.std::ios_base::_Words"], i32, %"struct.std::ios_base::_Words"*, %"class.std::locale" }
%"struct.std::ios_base::_Callback_list" = type { %"struct.std::ios_base::_Callback_list"*, void (i32, %"class.std::ios_base"*, i32)*, i32, i32 }
%"struct.std::ios_base::_Words" = type { i8*, i64 }
%"class.std::locale" = type { %"class.std::locale::_Impl"* }
%"class.std::locale::_Impl" = type { i32, %"class.std::locale::facet"**, i64, %"class.std::locale::facet"**, i8** }
%"class.std::locale::facet" = type <{ i32 (...)**, i32, [4 x i8] }>
%"class.std::basic_ostream" = type { i32 (...)**, %"class.std::basic_ios" }
%"class.std::basic_streambuf" = type { i32 (...)**, i8*, i8*, i8*, i8*, i8*, i8*, %"class.std::locale" }
%"class.std::ctype" = type <{ %"class.std::locale::facet.base", [4 x i8], %struct.__locale_struct*, i8, [7 x i8], i32*, i32*, i16*, i8, [256 x i8], [256 x i8], i8, [6 x i8] }>
%"class.std::locale::facet.base" = type <{ i32 (...)**, i32 }>
%struct.__locale_struct = type { [13 x %struct.__locale_data*], i16*, i32*, i32*, [13 x i8*] }
%struct.__locale_data = type opaque
%"class.std::num_put" = type { %"class.std::locale::facet.base", [4 x i8] }
%"class.std::num_get" = type { %"class.std::locale::facet.base", [4 x i8] }

@_ZStL8__ioinit = internal global %"class.std::ios_base::Init" zeroinitializer, align 1
@__dso_handle = external hidden global i8
@_ZSt3cin = external dso_local global %"class.std::basic_istream", align 8
@_ZSt4cout = external dso_local global %"class.std::basic_ostream", align 8
@llvm.global_ctors = appending global [1 x { i32, void ()*, i8* }] [{ i32, void ()*, i8* } { i32 65535, void ()* @_GLOBAL__sub_I_palindrome.cpp, i8* null }]

; Function Attrs: noinline uwtable
define internal void @__cxx_global_var_init() #0 section ".text.startup" {
entry:
  call void @_ZNSt8ios_base4InitC1Ev(%"class.std::ios_base::Init"* noundef nonnull align 1 dereferenceable(1) @_ZStL8__ioinit)
  %0 = call i32 @__cxa_atexit(void (i8*)* bitcast (void (%"class.std::ios_base::Init"*)* @_ZNSt8ios_base4InitD1Ev to void (i8*)*), i8* getelementptr inbounds (%"class.std::ios_base::Init", %"class.std::ios_base::Init"* @_ZStL8__ioinit, i32 0, i32 0), i8* @__dso_handle) #3
  ret void
}

declare dso_local void @_ZNSt8ios_base4InitC1Ev(%"class.std::ios_base::Init"* noundef nonnull align 1 dereferenceable(1)) unnamed_addr #1

; Function Attrs: nounwind
declare dso_local void @_ZNSt8ios_base4InitD1Ev(%"class.std::ios_base::Init"* noundef nonnull align 1 dereferenceable(1)) unnamed_addr #2

; Function Attrs: nounwind
declare dso_local i32 @__cxa_atexit(void (i8*)*, i8*, i8*) #3

; Function Attrs: mustprogress noinline nounwind optnone uwtable
define dso_local noundef zeroext i1 @_Z12isPalindromeiPc(i32 noundef %n, i8* noundef %str) #4 {
entry:
  %retval = alloca i1, align 1
  %n.addr = alloca i32, align 4
  %str.addr = alloca i8*, align 8
  %i = alloca i32, align 4
  %j = alloca i32, align 4
  store i32 %n, i32* %n.addr, align 4
  store i8* %str, i8** %str.addr, align 8
  %0 = load i32, i32* %n.addr, align 4
  %1 = zext i32 %0 to i64
  store i32 0, i32* %i, align 4
  %2 = load i32, i32* %n.addr, align 4
  %sub = sub nsw i32 %2, 1
  store i32 %sub, i32* %j, align 4
  br label %while.cond

while.cond:                                       ; preds = %if.end, %entry
  %3 = load i32, i32* %i, align 4
  %4 = load i32, i32* %j, align 4
  %cmp = icmp slt i32 %3, %4
  br i1 %cmp, label %while.body, label %while.end

while.body:                                       ; preds = %while.cond
  %5 = load i8*, i8** %str.addr, align 8
  %6 = load i32, i32* %i, align 4
  %idxprom = sext i32 %6 to i64
  %arrayidx = getelementptr inbounds i8, i8* %5, i64 %idxprom
  %7 = load i8, i8* %arrayidx, align 1
  %conv = sext i8 %7 to i32
  %8 = load i8*, i8** %str.addr, align 8
  %9 = load i32, i32* %j, align 4
  %idxprom1 = sext i32 %9 to i64
  %arrayidx2 = getelementptr inbounds i8, i8* %8, i64 %idxprom1
  %10 = load i8, i8* %arrayidx2, align 1
  %conv3 = sext i8 %10 to i32
  %cmp4 = icmp ne i32 %conv, %conv3
  br i1 %cmp4, label %if.then, label %if.end

if.then:                                          ; preds = %while.body
  store i1 false, i1* %retval, align 1
  br label %return

if.end:                                           ; preds = %while.body
  %11 = load i32, i32* %i, align 4
  %inc = add nsw i32 %11, 1
  store i32 %inc, i32* %i, align 4
  %12 = load i32, i32* %j, align 4
  %dec = add nsw i32 %12, -1
  store i32 %dec, i32* %j, align 4
  br label %while.cond, !llvm.loop !4

while.end:                                        ; preds = %while.cond
  store i1 true, i1* %retval, align 1
  br label %return

return:                                           ; preds = %while.end, %if.then
  %13 = load i1, i1* %retval, align 1
  ret i1 %13
}

; Function Attrs: mustprogress noinline norecurse optnone uwtable
define dso_local noundef i32 @main() #5 {
entry:
  %retval = alloca i32, align 4
  %n = alloca i32, align 4
  %saved_stack = alloca i8*, align 8
  %__vla_expr0 = alloca i64, align 8
  %i = alloca i32, align 4
  store i32 0, i32* %retval, align 4
  %call = call noundef nonnull align 8 dereferenceable(16) %"class.std::basic_istream"* @_ZNSirsERi(%"class.std::basic_istream"* noundef nonnull align 8 dereferenceable(16) @_ZSt3cin, i32* noundef nonnull align 4 dereferenceable(4) %n)
  %0 = load i32, i32* %n, align 4
  %1 = zext i32 %0 to i64
  %2 = call i8* @llvm.stacksave()
  store i8* %2, i8** %saved_stack, align 8
  %vla = alloca i8, i64 %1, align 16
  store i64 %1, i64* %__vla_expr0, align 8
  store i32 0, i32* %i, align 4
  br label %for.cond

for.cond:                                         ; preds = %for.inc, %entry
  %3 = load i32, i32* %i, align 4
  %4 = load i32, i32* %n, align 4
  %cmp = icmp slt i32 %3, %4
  br i1 %cmp, label %for.body, label %for.end

for.body:                                         ; preds = %for.cond
  %5 = load i32, i32* %i, align 4
  %idxprom = sext i32 %5 to i64
  %arrayidx = getelementptr inbounds i8, i8* %vla, i64 %idxprom
  %call1 = call noundef nonnull align 8 dereferenceable(16) %"class.std::basic_istream"* @_ZStrsIcSt11char_traitsIcEERSt13basic_istreamIT_T0_ES6_RS3_(%"class.std::basic_istream"* noundef nonnull align 8 dereferenceable(16) @_ZSt3cin, i8* noundef nonnull align 1 dereferenceable(1) %arrayidx)
  br label %for.inc

for.inc:                                          ; preds = %for.body
  %6 = load i32, i32* %i, align 4
  %inc = add nsw i32 %6, 1
  store i32 %inc, i32* %i, align 4
  br label %for.cond, !llvm.loop !6

for.end:                                          ; preds = %for.cond
  %7 = load i32, i32* %n, align 4
  %call2 = call noundef zeroext i1 @_Z12isPalindromeiPc(i32 noundef %7, i8* noundef %vla)
  %call3 = call noundef nonnull align 8 dereferenceable(8) %"class.std::basic_ostream"* @_ZNSolsEb(%"class.std::basic_ostream"* noundef nonnull align 8 dereferenceable(8) @_ZSt4cout, i1 noundef zeroext %call2)
  store i32 0, i32* %retval, align 4
  %8 = load i8*, i8** %saved_stack, align 8
  call void @llvm.stackrestore(i8* %8)
  %9 = load i32, i32* %retval, align 4
  ret i32 %9
}

declare dso_local noundef nonnull align 8 dereferenceable(16) %"class.std::basic_istream"* @_ZNSirsERi(%"class.std::basic_istream"* noundef nonnull align 8 dereferenceable(16), i32* noundef nonnull align 4 dereferenceable(4)) #1

; Function Attrs: nofree nosync nounwind willreturn
declare i8* @llvm.stacksave() #6

declare dso_local noundef nonnull align 8 dereferenceable(16) %"class.std::basic_istream"* @_ZStrsIcSt11char_traitsIcEERSt13basic_istreamIT_T0_ES6_RS3_(%"class.std::basic_istream"* noundef nonnull align 8 dereferenceable(16), i8* noundef nonnull align 1 dereferenceable(1)) #1

declare dso_local noundef nonnull align 8 dereferenceable(8) %"class.std::basic_ostream"* @_ZNSolsEb(%"class.std::basic_ostream"* noundef nonnull align 8 dereferenceable(8), i1 noundef zeroext) #1

; Function Attrs: nofree nosync nounwind willreturn
declare void @llvm.stackrestore(i8*) #6

; Function Attrs: noinline uwtable
define internal void @_GLOBAL__sub_I_palindrome.cpp() #0 section ".text.startup" {
entry:
  call void @__cxx_global_var_init()
  ret void
}

attributes #0 = { noinline uwtable "frame-pointer"="all" "min-legal-vector-width"="0" "no-trapping-math"="true" "stack-protector-buffer-size"="8" "target-cpu"="x86-64" "target-features"="+cx8,+fxsr,+mmx,+sse,+sse2,+x87" "tune-cpu"="generic" }
attributes #1 = { "frame-pointer"="all" "no-trapping-math"="true" "stack-protector-buffer-size"="8" "target-cpu"="x86-64" "target-features"="+cx8,+fxsr,+mmx,+sse,+sse2,+x87" "tune-cpu"="generic" }
attributes #2 = { nounwind "frame-pointer"="all" "no-trapping-math"="true" "stack-protector-buffer-size"="8" "target-cpu"="x86-64" "target-features"="+cx8,+fxsr,+mmx,+sse,+sse2,+x87" "tune-cpu"="generic" }
attributes #3 = { nounwind }
attributes #4 = { mustprogress noinline nounwind optnone uwtable "frame-pointer"="all" "min-legal-vector-width"="0" "no-trapping-math"="true" "stack-protector-buffer-size"="8" "target-cpu"="x86-64" "target-features"="+cx8,+fxsr,+mmx,+sse,+sse2,+x87" "tune-cpu"="generic" }
attributes #5 = { mustprogress noinline norecurse optnone uwtable "frame-pointer"="all" "min-legal-vector-width"="0" "no-trapping-math"="true" "stack-protector-buffer-size"="8" "target-cpu"="x86-64" "target-features"="+cx8,+fxsr,+mmx,+sse,+sse2,+x87" "tune-cpu"="generic" }
attributes #6 = { nofree nosync nounwind willreturn }

!llvm.module.flags = !{!0, !1, !2}
!llvm.ident = !{!3}

!0 = !{i32 1, !"wchar_size", i32 4}
!1 = !{i32 7, !"uwtable", i32 1}
!2 = !{i32 7, !"frame-pointer", i32 2}
!3 = !{!"clang version 14.0.6 (https://github.com/llvm/llvm-project/ f28c006a5895fc0e329fe15fead81e37457cb1d1)"}
!4 = distinct !{!4, !5}
!5 = !{!"llvm.loop.mustprogress"}
!6 = distinct !{!6, !5}
